target datalayout = "e-m:e-p270:32:32-p271:32:32-p272:64:64-i64:64-i128:128-f80:128-n8:16:32:64-S128"
target triple = "x86_64-pc-linux-gnu"

%struct.Abc_Ntk_t_ = type { i32, i32, ptr, ptr, ptr, ptr, ptr, ptr, ptr, ptr, ptr, ptr, ptr, [11 x i32], i32, i32, i32, i32, ptr, i32, ptr, ptr, i32, i32, i32, double, i32, %struct.Vec_Int_t_, ptr, ptr, ptr, ptr, ptr, float, i32, ptr, ptr, ptr, ptr, ptr, ptr, ptr, ptr, ptr, ptr, ptr, ptr, ptr, ptr, ptr, ptr, ptr, ptr, ptr, ptr, ptr }
%struct.Vec_Int_t_ = type { i32, i32, ptr }

@.str.6 = private unnamed_addr constant [24 x i8] c"Empty current network.\0A\00", align 1
@.str.7 = private unnamed_addr constant [33 x i8] c"The external spec is not given.\0A\00", align 1
@.str.8 = private unnamed_addr constant [2 x i8] c"r\00", align 1
@.str.9 = private unnamed_addr constant [42 x i8] c"Cannot open the external spec file \22%s\22.\0A\00", align 1
@.str.10 = private unnamed_addr constant [28 x i8] c"Wrong number of arguments.\0A\00", align 1

; Function Attrs: nounwind uwtable
define internal i32 @Abc_NtkIsStrash(ptr noundef %0) #0 {
  %2 = alloca ptr, align 8
  store ptr %0, ptr %2, align 8
  %3 = load ptr, ptr %2, align 8
  %4 = getelementptr inbounds %struct.Abc_Ntk_t_, ptr %3, i32 0, i32 0
  %5 = load i32, ptr %4, align 8
  %6 = icmp eq i32 %5, 3
  %7 = zext i1 %6 to i32
  ret i32 %7
}

; Function Attrs: nounwind uwtable
define i32 @Abc_NtkPrepareTwoNtks(ptr noundef %0, ptr noundef %1, ptr noundef %2, i32 noundef %3, ptr noundef %4, ptr noundef %5, ptr noundef %6, ptr noundef %7, i32 noundef %8) #0 {
  %10 = alloca i32, align 4
  %11 = alloca ptr, align 8
  %12 = alloca ptr, align 8
  %13 = alloca ptr, align 8
  %14 = alloca i32, align 4
  %15 = alloca ptr, align 8
  %16 = alloca ptr, align 8
  %17 = alloca ptr, align 8
  %18 = alloca ptr, align 8
  %19 = alloca i32, align 4
  %20 = alloca ptr, align 8
  %21 = alloca ptr, align 8
  %22 = alloca ptr, align 8
  %23 = alloca ptr, align 8
  %24 = alloca i32, align 4
  store ptr %0, ptr %11, align 8
  store ptr %1, ptr %12, align 8
  store ptr %2, ptr %13, align 8
  store i32 %3, ptr %14, align 4
  store ptr %4, ptr %15, align 8
  store ptr %5, ptr %16, align 8
  store ptr %6, ptr %17, align 8
  store ptr %7, ptr %18, align 8
  store i32 %8, ptr %19, align 4
  store i32 0, ptr %24, align 4
  %25 = load ptr, ptr %17, align 8
  store i32 0, ptr %25, align 4
  %26 = load ptr, ptr %18, align 8
  store i32 0, ptr %26, align 4
  %27 = load i32, ptr %14, align 4
  %28 = load i32, ptr %24, align 4
  %29 = icmp eq i32 %27, %28
  br i1 %29, label %30, label %78

30:                                               ; preds = %9
  %31 = load ptr, ptr %12, align 8
  %32 = icmp eq ptr %31, null
  br i1 %32, label %33, label %36

33:                                               ; preds = %30
  %34 = load ptr, ptr %11, align 8
  %35 = call i32 (ptr, ptr, ...) @fprintf(ptr noundef %34, ptr noundef @.str.6) #11
  store i32 0, ptr %10, align 4
  br label %196

36:                                               ; preds = %30
  %37 = load ptr, ptr %12, align 8
  %38 = getelementptr inbounds %struct.Abc_Ntk_t_, ptr %37, i32 0, i32 3
  %39 = load ptr, ptr %38, align 8
  %40 = icmp eq ptr %39, null
  br i1 %40, label %41, label %44

41:                                               ; preds = %36
  %42 = load ptr, ptr %11, align 8
  %43 = call i32 (ptr, ptr, ...) @fprintf(ptr noundef %42, ptr noundef @.str.7) #11
  store i32 0, ptr %10, align 4
  br label %196

44:                                               ; preds = %36
  %45 = load ptr, ptr %12, align 8
  %46 = getelementptr inbounds %struct.Abc_Ntk_t_, ptr %45, i32 0, i32 3
  %47 = load ptr, ptr %46, align 8
  %48 = call noalias ptr @fopen(ptr noundef %47, ptr noundef @.str.8)
  store ptr %48, ptr %20, align 8
  %49 = load ptr, ptr %20, align 8
  %50 = icmp eq ptr %49, null
  br i1 %50, label %51, label %57

51:                                               ; preds = %44
  %52 = load ptr, ptr %11, align 8
  %53 = load ptr, ptr %12, align 8
  %54 = getelementptr inbounds %struct.Abc_Ntk_t_, ptr %53, i32 0, i32 3
  %55 = load ptr, ptr %54, align 8
  %56 = call i32 (ptr, ptr, ...) @fprintf(ptr noundef %52, ptr noundef @.str.9, ptr noundef %55) #11
  store i32 0, ptr %10, align 4
  br label %196

57:                                               ; preds = %44
  %58 = load ptr, ptr %20, align 8
  %59 = call i32 @fclose(ptr noundef %58)
  br label %60

60:                                               ; preds = %57
  %61 = load ptr, ptr %12, align 8
  %62 = call ptr @Abc_NtkDup(ptr noundef %61)
  store ptr %62, ptr %21, align 8
  %63 = load ptr, ptr %12, align 8
  %64 = getelementptr inbounds %struct.Abc_Ntk_t_, ptr %63, i32 0, i32 3
  %65 = load ptr, ptr %64, align 8
  %66 = load ptr, ptr %12, align 8
  %67 = getelementptr inbounds %struct.Abc_Ntk_t_, ptr %66, i32 0, i32 3
  %68 = load ptr, ptr %67, align 8
  %69 = call i32 @Io_ReadFileType(ptr noundef %68)
  %70 = load i32, ptr %19, align 4
  %71 = call ptr @Io_Read(ptr noundef %65, i32 noundef %69, i32 noundef %70, i32 noundef 0)
  store ptr %71, ptr %22, align 8
  %72 = load ptr, ptr %22, align 8
  %73 = icmp eq ptr %72, null
  br i1 %73, label %74, label %75

74:                                               ; preds = %60
  store i32 0, ptr %10, align 4
  br label %196

75:                                               ; preds = %60
  %76 = load ptr, ptr %17, align 8
  store i32 1, ptr %76, align 4
  %77 = load ptr, ptr %18, align 8
  store i32 1, ptr %77, align 4
  br label %161

78:                                               ; preds = %9
  %79 = load i32, ptr %14, align 4
  %80 = load i32, ptr %24, align 4
  %81 = add nsw i32 %80, 1
  %82 = icmp eq i32 %79, %81
  br i1 %82, label %83, label %111

83:                                               ; preds = %78
  %84 = load ptr, ptr %12, align 8
  %85 = icmp eq ptr %84, null
  br i1 %85, label %86, label %89

86:                                               ; preds = %83
  %87 = load ptr, ptr %11, align 8
  %88 = call i32 (ptr, ptr, ...) @fprintf(ptr noundef %87, ptr noundef @.str.6) #11
  store i32 0, ptr %10, align 4
  br label %196

89:                                               ; preds = %83
  %90 = load ptr, ptr %12, align 8
  %91 = call ptr @Abc_NtkDup(ptr noundef %90)
  store ptr %91, ptr %21, align 8
  %92 = load ptr, ptr %13, align 8
  %93 = load i32, ptr %24, align 4
  %94 = sext i32 %93 to i64
  %95 = getelementptr inbounds ptr, ptr %92, i64 %94
  %96 = load ptr, ptr %95, align 8
  %97 = load ptr, ptr %13, align 8
  %98 = load i32, ptr %24, align 4
  %99 = sext i32 %98 to i64
  %100 = getelementptr inbounds ptr, ptr %97, i64 %99
  %101 = load ptr, ptr %100, align 8
  %102 = call i32 @Io_ReadFileType(ptr noundef %101)
  %103 = load i32, ptr %19, align 4
  %104 = call ptr @Io_Read(ptr noundef %96, i32 noundef %102, i32 noundef %103, i32 noundef 0)
  store ptr %104, ptr %22, align 8
  %105 = load ptr, ptr %22, align 8
  %106 = icmp eq ptr %105, null
  br i1 %106, label %107, label %108

107:                                              ; preds = %89
  store i32 0, ptr %10, align 4
  br label %196

108:                                              ; preds = %89
  %109 = load ptr, ptr %17, align 8
  store i32 1, ptr %109, align 4
  %110 = load ptr, ptr %18, align 8
  store i32 1, ptr %110, align 4
  br label %160

111:                                              ; preds = %78
  %112 = load i32, ptr %14, align 4
  %113 = load i32, ptr %24, align 4
  %114 = add nsw i32 %113, 2
  %115 = icmp eq i32 %112, %114
  br i1 %115, label %116, label %156

116:                                              ; preds = %111
  %117 = load ptr, ptr %13, align 8
  %118 = load i32, ptr %24, align 4
  %119 = sext i32 %118 to i64
  %120 = getelementptr inbounds ptr, ptr %117, i64 %119
  %121 = load ptr, ptr %120, align 8
  %122 = load ptr, ptr %13, align 8
  %123 = load i32, ptr %24, align 4
  %124 = sext i32 %123 to i64
  %125 = getelementptr inbounds ptr, ptr %122, i64 %124
  %126 = load ptr, ptr %125, align 8
  %127 = call i32 @Io_ReadFileType(ptr noundef %126)
  %128 = load i32, ptr %19, align 4
  %129 = call ptr @Io_Read(ptr noundef %121, i32 noundef %127, i32 noundef %128, i32 noundef 0)
  store ptr %129, ptr %21, align 8
  %130 = load ptr, ptr %21, align 8
  %131 = icmp eq ptr %130, null
  br i1 %131, label %132, label %133

132:                                              ; preds = %116
  store i32 0, ptr %10, align 4
  br label %196

133:                                              ; preds = %116
  %134 = load ptr, ptr %13, align 8
  %135 = load i32, ptr %24, align 4
  %136 = add nsw i32 %135, 1
  %137 = sext i32 %136 to i64
  %138 = getelementptr inbounds ptr, ptr %134, i64 %137
  %139 = load ptr, ptr %138, align 8
  %140 = load ptr, ptr %13, align 8
  %141 = load i32, ptr %24, align 4
  %142 = add nsw i32 %141, 1
  %143 = sext i32 %142 to i64
  %144 = getelementptr inbounds ptr, ptr %140, i64 %143
  %145 = load ptr, ptr %144, align 8
  %146 = call i32 @Io_ReadFileType(ptr noundef %145)
  %147 = load i32, ptr %19, align 4
  %148 = call ptr @Io_Read(ptr noundef %139, i32 noundef %146, i32 noundef %147, i32 noundef 0)
  store ptr %148, ptr %22, align 8
  %149 = load ptr, ptr %22, align 8
  %150 = icmp eq ptr %149, null
  br i1 %150, label %151, label %153

151:                                              ; preds = %133
  %152 = load ptr, ptr %21, align 8
  call void @Abc_NtkDelete(ptr noundef %152)
  store i32 0, ptr %10, align 4
  br label %196

153:                                              ; preds = %133
  %154 = load ptr, ptr %17, align 8
  store i32 1, ptr %154, align 4
  %155 = load ptr, ptr %18, align 8
  store i32 1, ptr %155, align 4
  br label %159

156:                                              ; preds = %111
  %157 = load ptr, ptr %11, align 8
  %158 = call i32 (ptr, ptr, ...) @fprintf(ptr noundef %157, ptr noundef @.str.10) #11
  store i32 0, ptr %10, align 4
  br label %196

159:                                              ; preds = %153
  br label %160

160:                                              ; preds = %159, %108
  br label %161

161:                                              ; preds = %160, %75
  %162 = load ptr, ptr %21, align 8
  %163 = call i32 @Abc_NtkIsStrash(ptr noundef %162)
  %164 = icmp ne i32 %163, 0
  br i1 %164, label %176, label %165

165:                                              ; preds = %161
  %166 = load ptr, ptr %21, align 8
  %167 = call ptr @Abc_NtkStrash(ptr noundef %166, i32 noundef 0, i32 noundef 1, i32 noundef 0)
  store ptr %167, ptr %23, align 8
  %168 = load ptr, ptr %17, align 8
  %169 = load i32, ptr %168, align 4
  %170 = icmp ne i32 %169, 0
  br i1 %170, label %171, label %173

171:                                              ; preds = %165
  %172 = load ptr, ptr %21, align 8
  call void @Abc_NtkDelete(ptr noundef %172)
  br label %173

173:                                              ; preds = %171, %165
  %174 = load ptr, ptr %23, align 8
  store ptr %174, ptr %21, align 8
  %175 = load ptr, ptr %17, align 8
  store i32 1, ptr %175, align 4
  br label %176

176:                                              ; preds = %173, %161
  %177 = load ptr, ptr %22, align 8
  %178 = call i32 @Abc_NtkIsStrash(ptr noundef %177)
  %179 = icmp ne i32 %178, 0
  br i1 %179, label %191, label %180

180:                                              ; preds = %176
  %181 = load ptr, ptr %22, align 8
  %182 = call ptr @Abc_NtkStrash(ptr noundef %181, i32 noundef 0, i32 noundef 1, i32 noundef 0)
  store ptr %182, ptr %23, align 8
  %183 = load ptr, ptr %18, align 8
  %184 = load i32, ptr %183, align 4
  %185 = icmp ne i32 %184, 0
  br i1 %185, label %186, label %188

186:                                              ; preds = %180
  %187 = load ptr, ptr %22, align 8
  call void @Abc_NtkDelete(ptr noundef %187)
  br label %188

188:                                              ; preds = %186, %180
  %189 = load ptr, ptr %23, align 8
  store ptr %189, ptr %22, align 8
  %190 = load ptr, ptr %18, align 8
  store i32 1, ptr %190, align 4
  br label %191

191:                                              ; preds = %188, %176
  %192 = load ptr, ptr %21, align 8
  %193 = load ptr, ptr %15, align 8
  store ptr %192, ptr %193, align 8
  %194 = load ptr, ptr %22, align 8
  %195 = load ptr, ptr %16, align 8
  store ptr %194, ptr %195, align 8
  store i32 1, ptr %10, align 4
  br label %196

196:                                              ; preds = %191, %156, %151, %132, %107, %86, %74, %51, %41, %33
  %197 = load i32, ptr %10, align 4
  ret i32 %197
}