; Function Attrs: nounwind uwtable
define range(i32 0, 2) i32 @Abc_NtkPrepareTwoNtks(ptr noundef captures(none) %0, ptr noundef %1, ptr noundef readonly captures(none) %2, i32 noundef %3, ptr noundef writeonly captures(none) %4, ptr noundef writeonly captures(none) %5, ptr noundef captures(none) initializes((0, 4)) %6, ptr noundef captures(none) initializes((0, 4)) %7, i32 noundef %8) local_unnamed_addr #0 {
  store i32 0, ptr %6, align 4
  store i32 0, ptr %7, align 4
  switch i32 %3, label %55 [
    i32 0, label %10
    i32 1, label %33
    i32 2, label %43
  ]

10:                                               ; preds = %9
  %11 = icmp eq ptr %1, null
  br i1 %11, label %12, label %14

12:                                               ; preds = %10
  %13 = tail call i64 @fwrite(ptr nonnull @.str.6, i64 23, i64 1, ptr %0)
  br label %70

14:                                               ; preds = %10
  %15 = getelementptr inbounds nuw i8, ptr %1, i64 16
  %16 = load ptr, ptr %15, align 8
  %17 = icmp eq ptr %16, null
  br i1 %17, label %18, label %20

18:                                               ; preds = %14
  %19 = tail call i64 @fwrite(ptr nonnull @.str.7, i64 32, i64 1, ptr %0)
  br label %70

20:                                               ; preds = %14
  %21 = tail call noalias ptr @fopen(ptr noundef nonnull %16, ptr noundef nonnull @.str.8)
  %22 = icmp eq ptr %21, null
  br i1 %22, label %23, label %26

23:                                               ; preds = %20
  %24 = load ptr, ptr %15, align 8
  %25 = tail call i32 (ptr, ptr, ...) @fprintf(ptr noundef %0, ptr noundef nonnull @.str.9, ptr noundef %24) #28
  br label %70

26:                                               ; preds = %20
  %27 = tail call i32 @fclose(ptr noundef nonnull %21)
  %28 = tail call ptr @Abc_NtkDup(ptr noundef nonnull %1) #28
  %29 = load ptr, ptr %15, align 8
  %30 = tail call i32 @Io_ReadFileType(ptr noundef %29) #28
  %31 = tail call ptr @Io_Read(ptr noundef %29, i32 noundef %30, i32 noundef %8, i32 noundef 0) #28
  %32 = icmp eq ptr %31, null
  br i1 %32, label %70, label %57

33:                                               ; preds = %9
  %34 = icmp eq ptr %1, null
  br i1 %34, label %35, label %37

35:                                               ; preds = %33
  %36 = tail call i64 @fwrite(ptr nonnull @.str.6, i64 23, i64 1, ptr %0)
  br label %70

37:                                               ; preds = %33
  %38 = tail call ptr @Abc_NtkDup(ptr noundef nonnull %1) #28
  %39 = load ptr, ptr %2, align 8
  %40 = tail call i32 @Io_ReadFileType(ptr noundef %39) #28
  %41 = tail call ptr @Io_Read(ptr noundef %39, i32 noundef %40, i32 noundef %8, i32 noundef 0) #28
  %42 = icmp eq ptr %41, null
  br i1 %42, label %70, label %57

43:                                               ; preds = %9
  %44 = load ptr, ptr %2, align 8
  %45 = tail call i32 @Io_ReadFileType(ptr noundef %44) #28
  %46 = tail call ptr @Io_Read(ptr noundef %44, i32 noundef %45, i32 noundef %8, i32 noundef 0) #28
  %47 = icmp eq ptr %46, null
  br i1 %47, label %70, label %48

48:                                               ; preds = %43
  %49 = getelementptr inbounds nuw i8, ptr %2, i64 8
  %50 = load ptr, ptr %49, align 8
  %51 = tail call i32 @Io_ReadFileType(ptr noundef %50) #28
  %52 = tail call ptr @Io_Read(ptr noundef %50, i32 noundef %51, i32 noundef %8, i32 noundef 0) #28
  %53 = icmp eq ptr %52, null
  br i1 %53, label %54, label %57

54:                                               ; preds = %48
  tail call void @Abc_NtkDelete(ptr noundef nonnull %46) #28
  br label %70

55:                                               ; preds = %9
  %56 = tail call i64 @fwrite(ptr nonnull @.str.10, i64 27, i64 1, ptr %0)
  br label %70

57:                                               ; preds = %48, %37, %26
  %.068 = phi ptr [ %28, %26 ], [ %38, %37 ], [ %46, %48 ]
  %.067 = phi ptr [ %31, %26 ], [ %41, %37 ], [ %52, %48 ]
  store i32 1, ptr %6, align 4
  store i32 1, ptr %7, align 4
  %.068.val = load i32, ptr %.068, align 8
  %.not = icmp eq i32 %.068.val, 3
  br i1 %.not, label %63, label %58

58:                                               ; preds = %57
  %59 = tail call ptr @Abc_NtkStrash(ptr noundef nonnull %.068, i32 noundef 0, i32 noundef 1, i32 noundef 0) #28
  %60 = load i32, ptr %6, align 4
  %.not79 = icmp eq i32 %60, 0
  br i1 %.not79, label %62, label %61

61:                                               ; preds = %58
  tail call void @Abc_NtkDelete(ptr noundef nonnull %.068) #28
  br label %62

62:                                               ; preds = %61, %58
  store i32 1, ptr %6, align 4
  br label %63

63:                                               ; preds = %62, %57
  %.169 = phi ptr [ %.068, %57 ], [ %59, %62 ]
  %.067.val = load i32, ptr %.067, align 8
  %.not82 = icmp eq i32 %.067.val, 3
  br i1 %.not82, label %69, label %64

64:                                               ; preds = %63
  %65 = tail call ptr @Abc_NtkStrash(ptr noundef nonnull %.067, i32 noundef 0, i32 noundef 1, i32 noundef 0) #28
  %66 = load i32, ptr %7, align 4
  %.not81 = icmp eq i32 %66, 0
  br i1 %.not81, label %68, label %67

67:                                               ; preds = %64
  tail call void @Abc_NtkDelete(ptr noundef nonnull %.067) #28
  br label %68

68:                                               ; preds = %67, %64
  store i32 1, ptr %7, align 4
  br label %69

69:                                               ; preds = %68, %63
  %.1 = phi ptr [ %.067, %63 ], [ %65, %68 ]
  store ptr %.169, ptr %4, align 8
  store ptr %.1, ptr %5, align 8
  br label %70

70:                                               ; preds = %43, %37, %26, %69, %55, %54, %35, %23, %18, %12
  %.0 = phi i32 [ 0, %12 ], [ 0, %18 ], [ 0, %23 ], [ 1, %69 ], [ 0, %35 ], [ 0, %54 ], [ 0, %55 ], [ 0, %26 ], [ 0, %37 ], [ 0, %43 ]
  ret i32 %.0
}